
test.o:     file format elf64-littleaarch64


Disassembly of section .init.text:

0000000000000000 <init_module>:
   0:	a9bf7bfd 	stp	x29, x30, [sp, #-16]!
   4:	90000000 	adrp	x0, 0 <init_module>
   8:	91000000 	add	x0, x0, #0x0
   c:	910003fd 	mov	x29, sp
  10:	94000000 	bl	0 <printk>
  14:	94000000 	bl	0 <trace_test_init>
  18:	52800000 	mov	w0, #0x0                   	// #0
  1c:	a8c17bfd 	ldp	x29, x30, [sp], #16
  20:	d65f03c0 	ret

Disassembly of section .exit.text:

0000000000000000 <cleanup_module>:
   0:	a9bf7bfd 	stp	x29, x30, [sp, #-16]!
   4:	90000000 	adrp	x0, 0 <cleanup_module>
   8:	91000000 	add	x0, x0, #0x0
   c:	910003fd 	mov	x29, sp
  10:	94000000 	bl	0 <printk>
  14:	a8c17bfd 	ldp	x29, x30, [sp], #16
  18:	d65f03c0 	ret

Disassembly of section .modinfo:

0000000000000000 <__UNIQUE_ID_license14>:
   0:	6563696c 	fnmls	z12.h, p2/m, z11.h, z3.h
   4:	3d65736e 	ldr	b14, [x27, #2396]
   8:	6c617544 	ldnp	d4, d29, [x10, #-496]
   c:	44534220 	.inst	0x44534220 ; undefined
  10:	4c50472f 	.inst	0x4c50472f ; undefined
	...

0000000000000015 <__UNIQUE_ID_author13>:
  15:	61          	.byte	0x61
  16:	7475      	.short	0x7475
  18:	3d726f68 	.word	0x3d726f68
  1c:	20756f5a 	.word	0x20756f5a
  20:	3c6f6143 	.word	0x3c6f6143
  24:	63756f7a 	.word	0x63756f7a
  28:	40786f61 	.word	0x40786f61
  2c:	6c74756f 	.word	0x6c74756f
  30:	2e6b6f6f 	.word	0x2e6b6f6f
  34:	3e6d6f63 	.word	0x3e6d6f63
	...

0000000000000039 <__UNIQUE_ID_license12>:
  39:	6c          	.byte	0x6c
  3a:	6369      	.short	0x6369
  3c:	65736e65 	.word	0x65736e65
  40:	4c50473d 	.word	0x4c50473d
	...
